; Function Attrs: nounwind uwtable
define dso_local range(i64 0, 2) i64 @text_le(ptr noundef readonly captures(none) %0) local_unnamed_addr #0 {
  %2 = getelementptr inbounds nuw i8, ptr %0, i64 32
  %3 = load i64, ptr %2, align 8
  %4 = inttoptr i64 %3 to ptr
  %5 = tail call ptr @pg_detoast_datum_packed(ptr noundef %4) #19
  %6 = getelementptr inbounds nuw i8, ptr %0, i64 48
  %7 = load i64, ptr %6, align 8
  %8 = inttoptr i64 %7 to ptr
  %9 = tail call ptr @pg_detoast_datum_packed(ptr noundef %8) #19
  %10 = getelementptr inbounds nuw i8, ptr %0, i64 24
  %11 = load i32, ptr %10, align 8
  %12 = load i8, ptr %5, align 1
  %13 = zext i8 %12 to i32
  %14 = and i32 %13, 1
  %.not.i = icmp eq i32 %14, 0
  %15 = getelementptr inbounds nuw i8, ptr %5, i64 1
  %16 = load i8, ptr %9, align 1
  %17 = getelementptr inbounds nuw i8, ptr %9, i64 1
  %18 = icmp eq i8 %12, 1
  br i1 %18, label %19, label %27

19:                                               ; preds = %1
  %20 = load i8, ptr %15, align 1
  %21 = icmp eq i8 %20, 1
  %22 = and i8 %20, -2
  %23 = icmp eq i8 %22, 2
  %or.cond.i = or i1 %21, %23
  %24 = icmp eq i8 %20, 18
  %25 = select i1 %24, i32 16, i32 0
  %26 = select i1 %or.cond.i, i32 8, i32 %25
  br label %35

27:                                               ; preds = %1
  br i1 %.not.i, label %31, label %28

28:                                               ; preds = %27
  %29 = lshr i32 %13, 1
  %30 = add nsw i32 %29, -1
  br label %35

31:                                               ; preds = %27
  %32 = load i32, ptr %5, align 4
  %33 = lshr i32 %32, 2
  %34 = add nsw i32 %33, -4
  br label %35

35:                                               ; preds = %31, %28, %19
  %36 = phi i32 [ %26, %19 ], [ %30, %28 ], [ %34, %31 ]
  %37 = zext i8 %16 to i32
  %38 = icmp eq i8 %16, 1
  br i1 %38, label %39, label %47

39:                                               ; preds = %35
  %40 = load i8, ptr %17, align 1
  %41 = icmp eq i8 %40, 1
  %42 = and i8 %40, -2
  %43 = icmp eq i8 %42, 2
  %or.cond31.i = or i1 %41, %43
  %44 = icmp eq i8 %40, 18
  %45 = select i1 %44, i32 16, i32 0
  %46 = select i1 %or.cond31.i, i32 8, i32 %45
  br label %text_cmp.exit

47:                                               ; preds = %35
  %48 = and i32 %37, 1
  %.not28.i = icmp eq i32 %48, 0
  br i1 %.not28.i, label %52, label %49

49:                                               ; preds = %47
  %50 = lshr i32 %37, 1
  %51 = add nsw i32 %50, -1
  br label %text_cmp.exit

52:                                               ; preds = %47
  %53 = load i32, ptr %9, align 4
  %54 = lshr i32 %53, 2
  %55 = add nsw i32 %54, -4
  br label %text_cmp.exit

text_cmp.exit:                                    ; preds = %39, %49, %52
  %56 = phi i32 [ %46, %39 ], [ %51, %49 ], [ %55, %52 ]
  %57 = and i8 %16, 1
  %.not27.i = icmp eq i8 %57, 0
  %58 = getelementptr inbounds nuw i8, ptr %9, i64 4
  %59 = select i1 %.not27.i, ptr %58, ptr %17
  %60 = getelementptr inbounds nuw i8, ptr %5, i64 4
  %61 = select i1 %.not.i, ptr %60, ptr %15
  %62 = tail call i32 @varstr_cmp(ptr noundef nonnull %61, i32 noundef %36, ptr noundef nonnull %59, i32 noundef %56, i32 noundef %11)
  %63 = load i64, ptr %2, align 8
  %64 = inttoptr i64 %63 to ptr
  %.not = icmp eq ptr %5, %64
  br i1 %.not, label %66, label %65

65:                                               ; preds = %text_cmp.exit
  tail call void @pfree(ptr noundef nonnull %5) #19
  br label %66

66:                                               ; preds = %text_cmp.exit, %65
  %67 = load i64, ptr %6, align 8
  %68 = inttoptr i64 %67 to ptr
  %.not12 = icmp eq ptr %9, %68
  br i1 %.not12, label %70, label %69

69:                                               ; preds = %66
  tail call void @pfree(ptr noundef nonnull %9) #19
  br label %70

70:                                               ; preds = %69, %66
  %71 = icmp slt i32 %62, 1
  %72 = zext i1 %71 to i64
  ret i64 %72
}